Certificate:
    Data:
        Version: 3 (0x2)
        Serial Number:
            ef:5d:8a:a2:84:2a:de:09:7b:92:99:ed:b0:a7:0c:6e
        Signature Algorithm: sha256WithRSAEncryption
        Issuer: CN=microcloud
        Validity
            Not Before: Oct 18 10:13:21 2021 GMT
            Not After : Jan 21 10:13:21 2024 GMT
        Subject: CN=projet-secu
        Subject Public Key Info:
            Public Key Algorithm: rsaEncryption
                RSA Public-Key: (2048 bit)
                Modulus:
                    00:f3:be:92:aa:2f:c1:04:5f:f0:dd:67:c5:e2:0d:
                    29:cc:7a:ad:dc:28:94:cc:cd:2e:d7:9b:bc:70:87:
                    38:a3:69:f6:d6:29:b9:ba:bf:e6:9c:f7:e2:69:4b:
                    c1:93:46:35:40:b6:64:ee:f4:54:4c:44:45:e2:d4:
                    4a:f7:54:0d:4b:2d:ab:87:07:25:8d:4f:e3:ce:07:
                    25:51:8b:49:2d:96:99:b0:77:9c:c6:55:47:0a:0f:
                    b3:3a:cd:2e:35:9f:38:62:47:67:b0:30:7f:86:01:
                    25:38:87:5c:9d:81:e7:05:53:23:a6:16:b1:8c:60:
                    c3:b3:de:1b:d2:2d:8c:c6:32:1a:7a:6a:3b:fb:24:
                    48:95:0c:a0:87:9b:db:3f:c9:f1:62:8d:4d:aa:45:
                    a2:66:70:6f:99:5b:89:91:fd:1f:62:b0:8c:be:ba:
                    55:e9:d9:a6:6f:55:b8:ac:a4:6a:59:cc:02:5b:24:
                    d3:27:8c:3c:83:c8:e6:05:60:71:4e:14:37:12:4d:
                    e7:ed:0e:a4:f9:e9:8b:95:17:5e:4d:65:97:9b:ff:
                    68:4b:fc:a6:92:cf:af:c7:8f:5f:ec:c1:31:be:81:
                    a2:e2:ae:59:3d:72:02:75:85:0d:5c:2d:32:45:e2:
                    b9:62:68:08:d8:78:1b:95:a9:b4:02:0a:84:93:d5:
                    cc:db
                Exponent: 65537 (0x10001)
        X509v3 extensions:
            X509v3 Basic Constraints: 
                CA:FALSE
            X509v3 Subject Key Identifier: 
                55:1B:AE:5A:F5:1C:59:27:A2:49:06:9D:5C:D7:C8:2A:2C:73:80:95
            X509v3 Authority Key Identifier: 
                keyid:24:59:18:6D:7D:B1:1B:11:9E:48:AF:9D:03:9A:9A:9B:E3:28:E1:49
                DirName:/CN=microcloud
                serial:4F:E0:7F:D3:87:75:72:0F:D2:6B:B0:FE:F1:F4:7E:B8:9F:31:B5:BD

            X509v3 Extended Key Usage: 
                TLS Web Client Authentication
            X509v3 Key Usage: 
                Digital Signature
    Signature Algorithm: sha256WithRSAEncryption
         4c:51:30:e5:9d:26:08:0e:45:f1:f5:e1:27:52:fb:47:6c:e3:
         90:c9:07:c8:6e:bf:2f:00:eb:2f:d1:22:62:1f:76:13:94:69:
         9d:8f:fa:d4:c1:d1:9e:df:72:4d:3e:2f:c1:8c:88:9e:d2:ba:
         83:db:72:c3:66:35:9b:87:a5:e5:3e:25:25:76:31:ef:72:83:
         59:0f:41:d6:e9:9d:fe:fc:5e:0c:6c:1d:7a:67:82:34:9f:bf:
         ea:ae:b7:a1:ee:20:b3:5a:00:2b:45:fb:49:5a:00:47:f6:ee:
         b9:95:f4:25:3c:c1:07:0b:22:a6:dc:a2:51:ff:83:0c:00:8f:
         b5:68:15:1a:67:fb:d5:77:74:d1:c5:86:e3:a5:f3:54:6a:af:
         c4:2f:20:e9:d7:db:85:16:d1:22:1e:6c:a0:88:82:1b:52:51:
         9a:c5:73:2e:fd:5e:8f:bf:df:9d:66:74:6e:eb:b6:b3:cc:97:
         90:9a:ac:08:30:1e:a5:60:c0:0b:51:9c:c5:01:4e:96:53:5c:
         12:e4:1c:b3:13:3a:2e:a4:65:6e:e3:fd:99:9d:ca:ff:10:08:
         fc:6c:bd:22:ed:47:e1:30:51:c7:cf:ee:63:90:9f:7a:4b:b4:
         1e:f0:6f:f7:1d:9c:25:b3:53:c1:02:5b:07:d1:62:b4:d1:a6:
         0e:52:9e:c6
-----BEGIN CERTIFICATE-----
MIIDWDCCAkCgAwIBAgIRAO9diqKEKt4Je5KZ7bCnDG4wDQYJKoZIhvcNAQELBQAw
FTETMBEGA1UEAwwKbWljcm9jbG91ZDAeFw0yMTEwMTgxMDEzMjFaFw0yNDAxMjEx
MDEzMjFaMBYxFDASBgNVBAMMC3Byb2pldC1zZWN1MIIBIjANBgkqhkiG9w0BAQEF
AAOCAQ8AMIIBCgKCAQEA876Sqi/BBF/w3WfF4g0pzHqt3CiUzM0u15u8cIc4o2n2
1im5ur/mnPfiaUvBk0Y1QLZk7vRUTERF4tRK91QNSy2rhwcljU/jzgclUYtJLZaZ
sHecxlVHCg+zOs0uNZ84YkdnsDB/hgElOIdcnYHnBVMjphaxjGDDs94b0i2MxjIa
emo7+yRIlQygh5vbP8nxYo1NqkWiZnBvmVuJkf0fYrCMvrpV6dmmb1W4rKRqWcwC
WyTTJ4w8g8jmBWBxThQ3Ek3n7Q6k+emLlRdeTWWXm/9oS/ymks+vx49f7MExvoGi
4q5ZPXICdYUNXC0yReK5YmgI2Hgblam0AgqEk9XM2wIDAQABo4GhMIGeMAkGA1Ud
EwQCMAAwHQYDVR0OBBYEFFUbrlr1HFknokkGnVzXyCosc4CVMFAGA1UdIwRJMEeA
FCRZGG19sRsRnkivnQOampvjKOFJoRmkFzAVMRMwEQYDVQQDDAptaWNyb2Nsb3Vk
ghRP4H/Th3VyD9JrsP7x9H64nzG1vTATBgNVHSUEDDAKBggrBgEFBQcDAjALBgNV
HQ8EBAMCB4AwDQYJKoZIhvcNAQELBQADggEBAExRMOWdJggORfH14SdS+0ds45DJ
B8huvy8A6y/RImIfdhOUaZ2P+tTB0Z7fck0+L8GMiJ7SuoPbcsNmNZuHpeU+JSV2
Me9yg1kPQdbpnf78XgxsHXpngjSfv+qut6HuILNaACtF+0laAEf27rmV9CU8wQcL
IqbcolH/gwwAj7VoFRpn+9V3dNHFhuOl81Rqr8QvIOnX24UW0SIebKCIghtSUZrF
cy79Xo+/351mdG7rtrPMl5CarAgwHqVgwAtRnMUBTpZTXBLkHLMTOi6kZW7j/Zmd
yv8QCPxsvSLtR+EwUcfP7mOQn3pLtB7wb/cdnCWzU8ECWwfRYrTRpg5SnsY=
-----END CERTIFICATE-----
